target datalayout = "e-m:e-p270:32:32-p271:32:32-p272:64:64-i64:64-i128:128-f80:128-n8:16:32:64-S128"
target triple = "x86_64-pc-linux-gnu"

%struct.SN_env = type { ptr, i32, i32, i32, i32, i32, ptr, ptr }

@s_5 = internal constant [4 x i8] c"ajar", align 1
@s_6 = internal constant [4 x i8] c"ajar", align 1

; Function Attrs: nounwind uwtable
define internal i32 @r_remove_second_order_prefix(ptr noundef %0) #0 {
  %2 = alloca i32, align 4
  %3 = alloca ptr, align 8
  %4 = alloca i32, align 4
  %5 = alloca i32, align 4
  %6 = alloca i32, align 4
  %7 = alloca i32, align 4
  %8 = alloca i32, align 4
  %9 = alloca i32, align 4
  store ptr %0, ptr %3, align 8
  call void @llvm.lifetime.start.p0(i64 4, ptr %4) #3
  %10 = load ptr, ptr %3, align 8
  %11 = getelementptr inbounds nuw %struct.SN_env, ptr %10, i32 0, i32 1
  %12 = load i32, ptr %11, align 8
  %13 = load ptr, ptr %3, align 8
  %14 = getelementptr inbounds nuw %struct.SN_env, ptr %13, i32 0, i32 4
  store i32 %12, ptr %14, align 4
  %15 = load ptr, ptr %3, align 8
  %16 = getelementptr inbounds nuw %struct.SN_env, ptr %15, i32 0, i32 1
  %17 = load i32, ptr %16, align 8
  %18 = add i32 %17, 1
  %19 = load ptr, ptr %3, align 8
  %20 = getelementptr inbounds nuw %struct.SN_env, ptr %19, i32 0, i32 2
  %21 = load i32, ptr %20, align 4
  %22 = icmp sge i32 %18, %21
  br i1 %22, label %36, label %23

23:                                               ; preds = %1
  %24 = load ptr, ptr %3, align 8
  %25 = getelementptr inbounds nuw %struct.SN_env, ptr %24, i32 0, i32 0
  %26 = load ptr, ptr %25, align 8
  %27 = load ptr, ptr %3, align 8
  %28 = getelementptr inbounds nuw %struct.SN_env, ptr %27, i32 0, i32 1
  %29 = load i32, ptr %28, align 8
  %30 = add i32 %29, 1
  %31 = sext i32 %30 to i64
  %32 = getelementptr inbounds i8, ptr %26, i64 %31
  %33 = load i8, ptr %32, align 1
  %34 = zext i8 %33 to i32
  %35 = icmp ne i32 %34, 101
  br i1 %35, label %36, label %37

36:                                               ; preds = %23, %1
  store i32 0, ptr %2, align 4
  store i32 1, ptr %5, align 4
  br label %131

37:                                               ; preds = %23
  %38 = load ptr, ptr %3, align 8
  %39 = call i32 @find_among(ptr noundef %38, ptr noundef @a_4, i32 noundef 6)
  store i32 %39, ptr %4, align 4
  %40 = load i32, ptr %4, align 4
  %41 = icmp ne i32 %40, 0
  br i1 %41, label %43, label %42

42:                                               ; preds = %37
  store i32 0, ptr %2, align 4
  store i32 1, ptr %5, align 4
  br label %131

43:                                               ; preds = %37
  %44 = load ptr, ptr %3, align 8
  %45 = getelementptr inbounds nuw %struct.SN_env, ptr %44, i32 0, i32 1
  %46 = load i32, ptr %45, align 8
  %47 = load ptr, ptr %3, align 8
  %48 = getelementptr inbounds nuw %struct.SN_env, ptr %47, i32 0, i32 5
  store i32 %46, ptr %48, align 8
  %49 = load i32, ptr %4, align 4
  switch i32 %49, label %130 [
    i32 1, label %50
    i32 2, label %71
    i32 3, label %88
    i32 4, label %109
  ]

50:                                               ; preds = %43
  call void @llvm.lifetime.start.p0(i64 4, ptr %6) #3
  %51 = load ptr, ptr %3, align 8
  %52 = call i32 @slice_del(ptr noundef %51)
  store i32 %52, ptr %6, align 4
  %53 = load i32, ptr %6, align 4
  %54 = icmp slt i32 %53, 0
  br i1 %54, label %55, label %57

55:                                               ; preds = %50
  %56 = load i32, ptr %6, align 4
  store i32 %56, ptr %2, align 4
  store i32 1, ptr %5, align 4
  br label %58

57:                                               ; preds = %50
  store i32 0, ptr %5, align 4
  br label %58

58:                                               ; preds = %57, %55
  call void @llvm.lifetime.end.p0(i64 4, ptr %6) #3
  %59 = load i32, ptr %5, align 4
  switch i32 %59, label %131 [
    i32 0, label %60
  ]

60:                                               ; preds = %58
  %61 = load ptr, ptr %3, align 8
  %62 = getelementptr inbounds nuw %struct.SN_env, ptr %61, i32 0, i32 7
  %63 = load ptr, ptr %62, align 8
  %64 = getelementptr inbounds i32, ptr %63, i64 0
  store i32 2, ptr %64, align 4
  %65 = load ptr, ptr %3, align 8
  %66 = getelementptr inbounds nuw %struct.SN_env, ptr %65, i32 0, i32 7
  %67 = load ptr, ptr %66, align 8
  %68 = getelementptr inbounds i32, ptr %67, i64 1
  %69 = load i32, ptr %68, align 4
  %70 = sub i32 %69, 1
  store i32 %70, ptr %68, align 4
  br label %130

71:                                               ; preds = %43
  call void @llvm.lifetime.start.p0(i64 4, ptr %7) #3
  %72 = load ptr, ptr %3, align 8
  %73 = call i32 @slice_from_s(ptr noundef %72, i32 noundef 4, ptr noundef @s_5)
  store i32 %73, ptr %7, align 4
  %74 = load i32, ptr %7, align 4
  %75 = icmp slt i32 %74, 0
  br i1 %75, label %76, label %78

76:                                               ; preds = %71
  %77 = load i32, ptr %7, align 4
  store i32 %77, ptr %2, align 4
  store i32 1, ptr %5, align 4
  br label %79

78:                                               ; preds = %71
  store i32 0, ptr %5, align 4
  br label %79

79:                                               ; preds = %78, %76
  call void @llvm.lifetime.end.p0(i64 4, ptr %7) #3
  %80 = load i32, ptr %5, align 4
  switch i32 %80, label %131 [
    i32 0, label %81
  ]

81:                                               ; preds = %79
  %82 = load ptr, ptr %3, align 8
  %83 = getelementptr inbounds nuw %struct.SN_env, ptr %82, i32 0, i32 7
  %84 = load ptr, ptr %83, align 8
  %85 = getelementptr inbounds i32, ptr %84, i64 1
  %86 = load i32, ptr %85, align 4
  %87 = sub i32 %86, 1
  store i32 %87, ptr %85, align 4
  br label %130

88:                                               ; preds = %43
  call void @llvm.lifetime.start.p0(i64 4, ptr %8) #3
  %89 = load ptr, ptr %3, align 8
  %90 = call i32 @slice_del(ptr noundef %89)
  store i32 %90, ptr %8, align 4
  %91 = load i32, ptr %8, align 4
  %92 = icmp slt i32 %91, 0
  br i1 %92, label %93, label %95

93:                                               ; preds = %88
  %94 = load i32, ptr %8, align 4
  store i32 %94, ptr %2, align 4
  store i32 1, ptr %5, align 4
  br label %96

95:                                               ; preds = %88
  store i32 0, ptr %5, align 4
  br label %96

96:                                               ; preds = %95, %93
  call void @llvm.lifetime.end.p0(i64 4, ptr %8) #3
  %97 = load i32, ptr %5, align 4
  switch i32 %97, label %131 [
    i32 0, label %98
  ]

98:                                               ; preds = %96
  %99 = load ptr, ptr %3, align 8
  %100 = getelementptr inbounds nuw %struct.SN_env, ptr %99, i32 0, i32 7
  %101 = load ptr, ptr %100, align 8
  %102 = getelementptr inbounds i32, ptr %101, i64 0
  store i32 4, ptr %102, align 4
  %103 = load ptr, ptr %3, align 8
  %104 = getelementptr inbounds nuw %struct.SN_env, ptr %103, i32 0, i32 7
  %105 = load ptr, ptr %104, align 8
  %106 = getelementptr inbounds i32, ptr %105, i64 1
  %107 = load i32, ptr %106, align 4
  %108 = sub i32 %107, 1
  store i32 %108, ptr %106, align 4
  br label %130

109:                                              ; preds = %43
  call void @llvm.lifetime.start.p0(i64 4, ptr %9) #3
  %110 = load ptr, ptr %3, align 8
  %111 = call i32 @slice_from_s(ptr noundef %110, i32 noundef 4, ptr noundef @s_6)
  store i32 %111, ptr %9, align 4
  %112 = load i32, ptr %9, align 4
  %113 = icmp slt i32 %112, 0
  br i1 %113, label %114, label %116

114:                                              ; preds = %109
  %115 = load i32, ptr %9, align 4
  store i32 %115, ptr %2, align 4
  store i32 1, ptr %5, align 4
  br label %117

116:                                              ; preds = %109
  store i32 0, ptr %5, align 4
  br label %117

117:                                              ; preds = %116, %114
  call void @llvm.lifetime.end.p0(i64 4, ptr %9) #3
  %118 = load i32, ptr %5, align 4
  switch i32 %118, label %131 [
    i32 0, label %119
  ]

119:                                              ; preds = %117
  %120 = load ptr, ptr %3, align 8
  %121 = getelementptr inbounds nuw %struct.SN_env, ptr %120, i32 0, i32 7
  %122 = load ptr, ptr %121, align 8
  %123 = getelementptr inbounds i32, ptr %122, i64 0
  store i32 4, ptr %123, align 4
  %124 = load ptr, ptr %3, align 8
  %125 = getelementptr inbounds nuw %struct.SN_env, ptr %124, i32 0, i32 7
  %126 = load ptr, ptr %125, align 8
  %127 = getelementptr inbounds i32, ptr %126, i64 1
  %128 = load i32, ptr %127, align 4
  %129 = sub i32 %128, 1
  store i32 %129, ptr %127, align 4
  br label %130

130:                                              ; preds = %43, %119, %98, %81, %60
  store i32 1, ptr %2, align 4
  store i32 1, ptr %5, align 4
  br label %131

131:                                              ; preds = %130, %117, %96, %79, %58, %42, %36
  call void @llvm.lifetime.end.p0(i64 4, ptr %4) #3
  %132 = load i32, ptr %2, align 4
  ret i32 %132
}